target datalayout = "e-m:e-p270:32:32-p271:32:32-p272:64:64-i64:64-i128:128-f80:128-n8:16:32:64-S128"
target triple = "x86_64-pc-linux-gnu"

@.str = private unnamed_addr constant [5 x i8] c"mode\00", align 1
@.str.1 = private unnamed_addr constant [60 x i8] c"../openssl/providers/implementations/ciphers/ciphercommon.c\00", align 1
@__func__.ossl_cipher_generic_get_params = private unnamed_addr constant [31 x i8] c"ossl_cipher_generic_get_params\00", align 1
@.str.2 = private unnamed_addr constant [5 x i8] c"aead\00", align 1
@.str.3 = private unnamed_addr constant [10 x i8] c"custom-iv\00", align 1
@.str.4 = private unnamed_addr constant [4 x i8] c"cts\00", align 1
@.str.5 = private unnamed_addr constant [10 x i8] c"tls-multi\00", align 1
@.str.6 = private unnamed_addr constant [12 x i8] c"has-randkey\00", align 1
@.str.7 = private unnamed_addr constant [7 x i8] c"keylen\00", align 1
@.str.8 = private unnamed_addr constant [10 x i8] c"blocksize\00", align 1
@.str.9 = private unnamed_addr constant [6 x i8] c"ivlen\00", align 1

; Function Attrs: nounwind uwtable
define i32 @ossl_cipher_generic_get_params(ptr noundef %0, i32 noundef %1, i64 noundef %2, i64 noundef %3, i64 noundef %4, i64 noundef %5) #0 {
  %7 = alloca i32, align 4
  %8 = alloca ptr, align 8
  %9 = alloca i32, align 4
  %10 = alloca i64, align 8
  %11 = alloca i64, align 8
  %12 = alloca i64, align 8
  %13 = alloca i64, align 8
  %14 = alloca ptr, align 8
  %15 = alloca i32, align 4
  store ptr %0, ptr %8, align 8, !tbaa !7
  store i32 %1, ptr %9, align 4, !tbaa !9
  store i64 %2, ptr %10, align 8, !tbaa !11
  store i64 %3, ptr %11, align 8, !tbaa !11
  store i64 %4, ptr %12, align 8, !tbaa !11
  store i64 %5, ptr %13, align 8, !tbaa !11
  call void @llvm.lifetime.start.p0(i64 8, ptr %14) #7
  %16 = load ptr, ptr %8, align 8, !tbaa !7
  %17 = call ptr @OSSL_PARAM_locate(ptr noundef %16, ptr noundef @.str)
  store ptr %17, ptr %14, align 8, !tbaa !7
  %18 = load ptr, ptr %14, align 8, !tbaa !7
  %19 = icmp ne ptr %18, null
  br i1 %19, label %20, label %26

20:                                               ; preds = %6
  %21 = load ptr, ptr %14, align 8, !tbaa !7
  %22 = load i32, ptr %9, align 4, !tbaa !9
  %23 = call i32 @OSSL_PARAM_set_uint(ptr noundef %21, i32 noundef %22)
  %24 = icmp ne i32 %23, 0
  br i1 %24, label %26, label %25

25:                                               ; preds = %20
  call void @ERR_new()
  call void @ERR_set_debug(ptr noundef @.str.1, i32 noundef 51, ptr noundef @__func__.ossl_cipher_generic_get_params)
  call void (i32, i32, ptr, ...) @ERR_set_error(i32 noundef 57, i32 noundef 104, ptr noundef null)
  store i32 0, ptr %7, align 4
  store i32 1, ptr %15, align 4
  br label %133

26:                                               ; preds = %20, %6
  %27 = load ptr, ptr %8, align 8, !tbaa !7
  %28 = call ptr @OSSL_PARAM_locate(ptr noundef %27, ptr noundef @.str.2)
  store ptr %28, ptr %14, align 8, !tbaa !7
  %29 = load ptr, ptr %14, align 8, !tbaa !7
  %30 = icmp ne ptr %29, null
  br i1 %30, label %31, label %40

31:                                               ; preds = %26
  %32 = load ptr, ptr %14, align 8, !tbaa !7
  %33 = load i64, ptr %10, align 8, !tbaa !11
  %34 = and i64 %33, 1
  %35 = icmp ne i64 %34, 0
  %36 = zext i1 %35 to i32
  %37 = call i32 @OSSL_PARAM_set_int(ptr noundef %32, i32 noundef %36)
  %38 = icmp ne i32 %37, 0
  br i1 %38, label %40, label %39

39:                                               ; preds = %31
  call void @ERR_new()
  call void @ERR_set_debug(ptr noundef @.str.1, i32 noundef 57, ptr noundef @__func__.ossl_cipher_generic_get_params)
  call void (i32, i32, ptr, ...) @ERR_set_error(i32 noundef 57, i32 noundef 104, ptr noundef null)
  store i32 0, ptr %7, align 4
  store i32 1, ptr %15, align 4
  br label %133

40:                                               ; preds = %31, %26
  %41 = load ptr, ptr %8, align 8, !tbaa !7
  %42 = call ptr @OSSL_PARAM_locate(ptr noundef %41, ptr noundef @.str.3)
  store ptr %42, ptr %14, align 8, !tbaa !7
  %43 = load ptr, ptr %14, align 8, !tbaa !7
  %44 = icmp ne ptr %43, null
  br i1 %44, label %45, label %54

45:                                               ; preds = %40
  %46 = load ptr, ptr %14, align 8, !tbaa !7
  %47 = load i64, ptr %10, align 8, !tbaa !11
  %48 = and i64 %47, 2
  %49 = icmp ne i64 %48, 0
  %50 = zext i1 %49 to i32
  %51 = call i32 @OSSL_PARAM_set_int(ptr noundef %46, i32 noundef %50)
  %52 = icmp ne i32 %51, 0
  br i1 %52, label %54, label %53

53:                                               ; preds = %45
  call void @ERR_new()
  call void @ERR_set_debug(ptr noundef @.str.1, i32 noundef 63, ptr noundef @__func__.ossl_cipher_generic_get_params)
  call void (i32, i32, ptr, ...) @ERR_set_error(i32 noundef 57, i32 noundef 104, ptr noundef null)
  store i32 0, ptr %7, align 4
  store i32 1, ptr %15, align 4
  br label %133

54:                                               ; preds = %45, %40
  %55 = load ptr, ptr %8, align 8, !tbaa !7
  %56 = call ptr @OSSL_PARAM_locate(ptr noundef %55, ptr noundef @.str.4)
  store ptr %56, ptr %14, align 8, !tbaa !7
  %57 = load ptr, ptr %14, align 8, !tbaa !7
  %58 = icmp ne ptr %57, null
  br i1 %58, label %59, label %68

59:                                               ; preds = %54
  %60 = load ptr, ptr %14, align 8, !tbaa !7
  %61 = load i64, ptr %10, align 8, !tbaa !11
  %62 = and i64 %61, 4
  %63 = icmp ne i64 %62, 0
  %64 = zext i1 %63 to i32
  %65 = call i32 @OSSL_PARAM_set_int(ptr noundef %60, i32 noundef %64)
  %66 = icmp ne i32 %65, 0
  br i1 %66, label %68, label %67

67:                                               ; preds = %59
  call void @ERR_new()
  call void @ERR_set_debug(ptr noundef @.str.1, i32 noundef 69, ptr noundef @__func__.ossl_cipher_generic_get_params)
  call void (i32, i32, ptr, ...) @ERR_set_error(i32 noundef 57, i32 noundef 104, ptr noundef null)
  store i32 0, ptr %7, align 4
  store i32 1, ptr %15, align 4
  br label %133

68:                                               ; preds = %59, %54
  %69 = load ptr, ptr %8, align 8, !tbaa !7
  %70 = call ptr @OSSL_PARAM_locate(ptr noundef %69, ptr noundef @.str.5)
  store ptr %70, ptr %14, align 8, !tbaa !7
  %71 = load ptr, ptr %14, align 8, !tbaa !7
  %72 = icmp ne ptr %71, null
  br i1 %72, label %73, label %82

73:                                               ; preds = %68
  %74 = load ptr, ptr %14, align 8, !tbaa !7
  %75 = load i64, ptr %10, align 8, !tbaa !11
  %76 = and i64 %75, 8
  %77 = icmp ne i64 %76, 0
  %78 = zext i1 %77 to i32
  %79 = call i32 @OSSL_PARAM_set_int(ptr noundef %74, i32 noundef %78)
  %80 = icmp ne i32 %79, 0
  br i1 %80, label %82, label %81

81:                                               ; preds = %73
  call void @ERR_new()
  call void @ERR_set_debug(ptr noundef @.str.1, i32 noundef 75, ptr noundef @__func__.ossl_cipher_generic_get_params)
  call void (i32, i32, ptr, ...) @ERR_set_error(i32 noundef 57, i32 noundef 104, ptr noundef null)
  store i32 0, ptr %7, align 4
  store i32 1, ptr %15, align 4
  br label %133

82:                                               ; preds = %73, %68
  %83 = load ptr, ptr %8, align 8, !tbaa !7
  %84 = call ptr @OSSL_PARAM_locate(ptr noundef %83, ptr noundef @.str.6)
  store ptr %84, ptr %14, align 8, !tbaa !7
  %85 = load ptr, ptr %14, align 8, !tbaa !7
  %86 = icmp ne ptr %85, null
  br i1 %86, label %87, label %96

87:                                               ; preds = %82
  %88 = load ptr, ptr %14, align 8, !tbaa !7
  %89 = load i64, ptr %10, align 8, !tbaa !11
  %90 = and i64 %89, 16
  %91 = icmp ne i64 %90, 0
  %92 = zext i1 %91 to i32
  %93 = call i32 @OSSL_PARAM_set_int(ptr noundef %88, i32 noundef %92)
  %94 = icmp ne i32 %93, 0
  br i1 %94, label %96, label %95

95:                                               ; preds = %87
  call void @ERR_new()
  call void @ERR_set_debug(ptr noundef @.str.1, i32 noundef 81, ptr noundef @__func__.ossl_cipher_generic_get_params)
  call void (i32, i32, ptr, ...) @ERR_set_error(i32 noundef 57, i32 noundef 104, ptr noundef null)
  store i32 0, ptr %7, align 4
  store i32 1, ptr %15, align 4
  br label %133

96:                                               ; preds = %87, %82
  %97 = load ptr, ptr %8, align 8, !tbaa !7
  %98 = call ptr @OSSL_PARAM_locate(ptr noundef %97, ptr noundef @.str.7)
  store ptr %98, ptr %14, align 8, !tbaa !7
  %99 = load ptr, ptr %14, align 8, !tbaa !7
  %100 = icmp ne ptr %99, null
  br i1 %100, label %101, label %108

101:                                              ; preds = %96
  %102 = load ptr, ptr %14, align 8, !tbaa !7
  %103 = load i64, ptr %11, align 8, !tbaa !11
  %104 = udiv i64 %103, 8
  %105 = call i32 @OSSL_PARAM_set_size_t(ptr noundef %102, i64 noundef %104)
  %106 = icmp ne i32 %105, 0
  br i1 %106, label %108, label %107

107:                                              ; preds = %101
  call void @ERR_new()
  call void @ERR_set_debug(ptr noundef @.str.1, i32 noundef 86, ptr noundef @__func__.ossl_cipher_generic_get_params)
  call void (i32, i32, ptr, ...) @ERR_set_error(i32 noundef 57, i32 noundef 104, ptr noundef null)
  store i32 0, ptr %7, align 4
  store i32 1, ptr %15, align 4
  br label %133

108:                                              ; preds = %101, %96
  %109 = load ptr, ptr %8, align 8, !tbaa !7
  %110 = call ptr @OSSL_PARAM_locate(ptr noundef %109, ptr noundef @.str.8)
  store ptr %110, ptr %14, align 8, !tbaa !7
  %111 = load ptr, ptr %14, align 8, !tbaa !7
  %112 = icmp ne ptr %111, null
  br i1 %112, label %113, label %120

113:                                              ; preds = %108
  %114 = load ptr, ptr %14, align 8, !tbaa !7
  %115 = load i64, ptr %12, align 8, !tbaa !11
  %116 = udiv i64 %115, 8
  %117 = call i32 @OSSL_PARAM_set_size_t(ptr noundef %114, i64 noundef %116)
  %118 = icmp ne i32 %117, 0
  br i1 %118, label %120, label %119

119:                                              ; preds = %113
  call void @ERR_new()
  call void @ERR_set_debug(ptr noundef @.str.1, i32 noundef 91, ptr noundef @__func__.ossl_cipher_generic_get_params)
  call void (i32, i32, ptr, ...) @ERR_set_error(i32 noundef 57, i32 noundef 104, ptr noundef null)
  store i32 0, ptr %7, align 4
  store i32 1, ptr %15, align 4
  br label %133

120:                                              ; preds = %113, %108
  %121 = load ptr, ptr %8, align 8, !tbaa !7
  %122 = call ptr @OSSL_PARAM_locate(ptr noundef %121, ptr noundef @.str.9)
  store ptr %122, ptr %14, align 8, !tbaa !7
  %123 = load ptr, ptr %14, align 8, !tbaa !7
  %124 = icmp ne ptr %123, null
  br i1 %124, label %125, label %132

125:                                              ; preds = %120
  %126 = load ptr, ptr %14, align 8, !tbaa !7
  %127 = load i64, ptr %13, align 8, !tbaa !11
  %128 = udiv i64 %127, 8
  %129 = call i32 @OSSL_PARAM_set_size_t(ptr noundef %126, i64 noundef %128)
  %130 = icmp ne i32 %129, 0
  br i1 %130, label %132, label %131

131:                                              ; preds = %125
  call void @ERR_new()
  call void @ERR_set_debug(ptr noundef @.str.1, i32 noundef 96, ptr noundef @__func__.ossl_cipher_generic_get_params)
  call void (i32, i32, ptr, ...) @ERR_set_error(i32 noundef 57, i32 noundef 104, ptr noundef null)
  store i32 0, ptr %7, align 4
  store i32 1, ptr %15, align 4
  br label %133

132:                                              ; preds = %125, %120
  store i32 1, ptr %7, align 4
  store i32 1, ptr %15, align 4
  br label %133

133:                                              ; preds = %132, %131, %119, %107, %95, %81, %67, %53, %39, %25
  call void @llvm.lifetime.end.p0(i64 8, ptr %14) #7
  %134 = load i32, ptr %7, align 4
  ret i32 %134
}