; Function Attrs: nounwind uwtable
define range(i32 0, 2) i32 @ossl_cipher_generic_get_params(ptr noundef %0, i32 noundef %1, i64 noundef %2, i64 noundef %3, i64 noundef %4, i64 noundef %5) local_unnamed_addr #1 {
  %7 = tail call ptr @OSSL_PARAM_locate(ptr noundef %0, ptr noundef nonnull @.str) #6
  %.not = icmp eq ptr %7, null
  br i1 %.not, label %10, label %8

8:                                                ; preds = %6
  %9 = tail call i32 @OSSL_PARAM_set_uint(ptr noundef nonnull %7, i32 noundef %1) #6
  %.not45 = icmp eq i32 %9, 0
  br i1 %.not45, label %.sink.split, label %10

10:                                               ; preds = %8, %6
  %11 = tail call ptr @OSSL_PARAM_locate(ptr noundef %0, ptr noundef nonnull @.str.2) #6
  %.not46 = icmp eq ptr %11, null
  br i1 %.not46, label %16, label %12

12:                                               ; preds = %10
  %13 = trunc i64 %2 to i32
  %14 = and i32 %13, 1
  %15 = tail call i32 @OSSL_PARAM_set_int(ptr noundef nonnull %11, i32 noundef %14) #6
  %.not47 = icmp eq i32 %15, 0
  br i1 %.not47, label %.sink.split, label %16

16:                                               ; preds = %12, %10
  %17 = tail call ptr @OSSL_PARAM_locate(ptr noundef %0, ptr noundef nonnull @.str.3) #6
  %.not48 = icmp eq ptr %17, null
  br i1 %.not48, label %23, label %18

18:                                               ; preds = %16
  %19 = trunc i64 %2 to i32
  %20 = lshr i32 %19, 1
  %21 = and i32 %20, 1
  %22 = tail call i32 @OSSL_PARAM_set_int(ptr noundef nonnull %17, i32 noundef %21) #6
  %.not49 = icmp eq i32 %22, 0
  br i1 %.not49, label %.sink.split, label %23

23:                                               ; preds = %18, %16
  %24 = tail call ptr @OSSL_PARAM_locate(ptr noundef %0, ptr noundef nonnull @.str.4) #6
  %.not50 = icmp eq ptr %24, null
  br i1 %.not50, label %30, label %25

25:                                               ; preds = %23
  %26 = trunc i64 %2 to i32
  %27 = lshr i32 %26, 2
  %28 = and i32 %27, 1
  %29 = tail call i32 @OSSL_PARAM_set_int(ptr noundef nonnull %24, i32 noundef %28) #6
  %.not51 = icmp eq i32 %29, 0
  br i1 %.not51, label %.sink.split, label %30

30:                                               ; preds = %25, %23
  %31 = tail call ptr @OSSL_PARAM_locate(ptr noundef %0, ptr noundef nonnull @.str.5) #6
  %.not52 = icmp eq ptr %31, null
  br i1 %.not52, label %37, label %32

32:                                               ; preds = %30
  %33 = trunc i64 %2 to i32
  %34 = lshr i32 %33, 3
  %35 = and i32 %34, 1
  %36 = tail call i32 @OSSL_PARAM_set_int(ptr noundef nonnull %31, i32 noundef %35) #6
  %.not53 = icmp eq i32 %36, 0
  br i1 %.not53, label %.sink.split, label %37

37:                                               ; preds = %32, %30
  %38 = tail call ptr @OSSL_PARAM_locate(ptr noundef %0, ptr noundef nonnull @.str.6) #6
  %.not54 = icmp eq ptr %38, null
  br i1 %.not54, label %44, label %39

39:                                               ; preds = %37
  %40 = trunc i64 %2 to i32
  %41 = lshr i32 %40, 4
  %42 = and i32 %41, 1
  %43 = tail call i32 @OSSL_PARAM_set_int(ptr noundef nonnull %38, i32 noundef %42) #6
  %.not55 = icmp eq i32 %43, 0
  br i1 %.not55, label %.sink.split, label %44

44:                                               ; preds = %39, %37
  %45 = tail call ptr @OSSL_PARAM_locate(ptr noundef %0, ptr noundef nonnull @.str.7) #6
  %.not56 = icmp eq ptr %45, null
  br i1 %.not56, label %49, label %46

46:                                               ; preds = %44
  %47 = lshr i64 %3, 3
  %48 = tail call i32 @OSSL_PARAM_set_size_t(ptr noundef nonnull %45, i64 noundef %47) #6
  %.not57 = icmp eq i32 %48, 0
  br i1 %.not57, label %.sink.split, label %49

49:                                               ; preds = %46, %44
  %50 = tail call ptr @OSSL_PARAM_locate(ptr noundef %0, ptr noundef nonnull @.str.8) #6
  %.not58 = icmp eq ptr %50, null
  br i1 %.not58, label %54, label %51

51:                                               ; preds = %49
  %52 = lshr i64 %4, 3
  %53 = tail call i32 @OSSL_PARAM_set_size_t(ptr noundef nonnull %50, i64 noundef %52) #6
  %.not59 = icmp eq i32 %53, 0
  br i1 %.not59, label %.sink.split, label %54

54:                                               ; preds = %51, %49
  %55 = tail call ptr @OSSL_PARAM_locate(ptr noundef %0, ptr noundef nonnull @.str.9) #6
  %.not60 = icmp eq ptr %55, null
  br i1 %.not60, label %59, label %56

56:                                               ; preds = %54
  %57 = lshr i64 %5, 3
  %58 = tail call i32 @OSSL_PARAM_set_size_t(ptr noundef nonnull %55, i64 noundef %57) #6
  %.not61 = icmp eq i32 %58, 0
  br i1 %.not61, label %.sink.split, label %59

.sink.split:                                      ; preds = %56, %51, %46, %39, %32, %25, %18, %12, %8
  %.sink = phi i32 [ 51, %8 ], [ 57, %12 ], [ 63, %18 ], [ 69, %25 ], [ 75, %32 ], [ 81, %39 ], [ 86, %46 ], [ 91, %51 ], [ 96, %56 ]
  tail call void @ERR_new() #6
  tail call void @ERR_set_debug(ptr noundef nonnull @.str.1, i32 noundef %.sink, ptr noundef nonnull @__func__.ossl_cipher_generic_get_params) #6
  tail call void (i32, i32, ptr, ...) @ERR_set_error(i32 noundef 57, i32 noundef 104, ptr noundef null) #6
  br label %59

59:                                               ; preds = %.sink.split, %54, %56
  %.0 = phi i32 [ 1, %56 ], [ 1, %54 ], [ 0, %.sink.split ]
  ret i32 %.0
}